target datalayout = "e-m:e-p270:32:32-p271:32:32-p272:64:64-i64:64-i128:128-f80:128-n8:16:32:64-S128"
target triple = "x86_64-pc-linux-gnu"

%struct.SparseMatrix_struct = type { i32, i32, i32, i32, i32, ptr, ptr, ptr, i32, i8, i64 }

; Function Attrs: nounwind uwtable
define double @average_edge_length(ptr noundef %0, i32 noundef %1, ptr noundef %2) #0 {
  %4 = alloca double, align 8
  %5 = alloca ptr, align 8
  %6 = alloca i32, align 4
  %7 = alloca ptr, align 8
  %8 = alloca double, align 8
  %9 = alloca double, align 8
  %10 = alloca ptr, align 8
  %11 = alloca ptr, align 8
  %12 = alloca i32, align 4
  %13 = alloca i32, align 4
  %14 = alloca i32, align 4
  %15 = alloca i32, align 4
  store ptr %0, ptr %5, align 8, !tbaa !34
  store i32 %1, ptr %6, align 4, !tbaa !36
  store ptr %2, ptr %7, align 8, !tbaa !37
  call void @llvm.lifetime.start.p0(i64 8, ptr %8) #12
  store double 0.000000e+00, ptr %8, align 8, !tbaa !39
  call void @llvm.lifetime.start.p0(i64 8, ptr %9) #12
  call void @llvm.lifetime.start.p0(i64 8, ptr %10) #12
  %16 = load ptr, ptr %5, align 8, !tbaa !34
  %17 = getelementptr inbounds nuw %struct.SparseMatrix_struct, ptr %16, i32 0, i32 5
  %18 = load ptr, ptr %17, align 8, !tbaa !40
  store ptr %18, ptr %10, align 8, !tbaa !43
  call void @llvm.lifetime.start.p0(i64 8, ptr %11) #12
  %19 = load ptr, ptr %5, align 8, !tbaa !34
  %20 = getelementptr inbounds nuw %struct.SparseMatrix_struct, ptr %19, i32 0, i32 6
  %21 = load ptr, ptr %20, align 8, !tbaa !44
  store ptr %21, ptr %11, align 8, !tbaa !43
  call void @llvm.lifetime.start.p0(i64 4, ptr %12) #12
  call void @llvm.lifetime.start.p0(i64 4, ptr %13) #12
  call void @llvm.lifetime.start.p0(i64 4, ptr %14) #12
  %22 = load ptr, ptr %10, align 8, !tbaa !43
  %23 = load ptr, ptr %5, align 8, !tbaa !34
  %24 = getelementptr inbounds nuw %struct.SparseMatrix_struct, ptr %23, i32 0, i32 0
  %25 = load i32, ptr %24, align 8, !tbaa !45
  %26 = sext i32 %25 to i64
  %27 = getelementptr inbounds i32, ptr %22, i64 %26
  %28 = load i32, ptr %27, align 4, !tbaa !36
  %29 = icmp eq i32 %28, 0
  br i1 %29, label %30, label %31

30:                                               ; preds = %3
  store double 1.000000e+00, ptr %4, align 8
  store i32 1, ptr %15, align 4
  br label %129

31:                                               ; preds = %3
  store i32 0, ptr %12, align 4, !tbaa !36
  br label %32

32:                                               ; preds = %115, %31
  %33 = load i32, ptr %12, align 4, !tbaa !36
  %34 = load ptr, ptr %5, align 8, !tbaa !34
  %35 = getelementptr inbounds nuw %struct.SparseMatrix_struct, ptr %34, i32 0, i32 0
  %36 = load i32, ptr %35, align 8, !tbaa !45
  %37 = icmp slt i32 %33, %36
  br i1 %37, label %38, label %118

38:                                               ; preds = %32
  %39 = load ptr, ptr %10, align 8, !tbaa !43
  %40 = load i32, ptr %12, align 4, !tbaa !36
  %41 = sext i32 %40 to i64
  %42 = getelementptr inbounds i32, ptr %39, i64 %41
  %43 = load i32, ptr %42, align 4, !tbaa !36
  store i32 %43, ptr %13, align 4, !tbaa !36
  br label %44

44:                                               ; preds = %111, %38
  %45 = load i32, ptr %13, align 4, !tbaa !36
  %46 = load ptr, ptr %10, align 8, !tbaa !43
  %47 = load i32, ptr %12, align 4, !tbaa !36
  %48 = add nsw i32 %47, 1
  %49 = sext i32 %48 to i64
  %50 = getelementptr inbounds i32, ptr %46, i64 %49
  %51 = load i32, ptr %50, align 4, !tbaa !36
  %52 = icmp slt i32 %45, %51
  br i1 %52, label %53, label %114

53:                                               ; preds = %44
  store double 0.000000e+00, ptr %9, align 8, !tbaa !39
  store i32 0, ptr %14, align 4, !tbaa !36
  br label %54

54:                                               ; preds = %103, %53
  %55 = load i32, ptr %14, align 4, !tbaa !36
  %56 = load i32, ptr %6, align 4, !tbaa !36
  %57 = icmp slt i32 %55, %56
  br i1 %57, label %58, label %106

58:                                               ; preds = %54
  %59 = load ptr, ptr %7, align 8, !tbaa !37
  %60 = load i32, ptr %6, align 4, !tbaa !36
  %61 = load i32, ptr %12, align 4, !tbaa !36
  %62 = mul nsw i32 %60, %61
  %63 = load i32, ptr %14, align 4, !tbaa !36
  %64 = add nsw i32 %62, %63
  %65 = sext i32 %64 to i64
  %66 = getelementptr inbounds double, ptr %59, i64 %65
  %67 = load double, ptr %66, align 8, !tbaa !39
  %68 = load ptr, ptr %7, align 8, !tbaa !37
  %69 = load i32, ptr %6, align 4, !tbaa !36
  %70 = load ptr, ptr %11, align 8, !tbaa !43
  %71 = load i32, ptr %13, align 4, !tbaa !36
  %72 = sext i32 %71 to i64
  %73 = getelementptr inbounds i32, ptr %70, i64 %72
  %74 = load i32, ptr %73, align 4, !tbaa !36
  %75 = mul nsw i32 %69, %74
  %76 = sext i32 %75 to i64
  %77 = getelementptr inbounds double, ptr %68, i64 %76
  %78 = load double, ptr %77, align 8, !tbaa !39
  %79 = fsub double %67, %78
  %80 = load ptr, ptr %7, align 8, !tbaa !37
  %81 = load i32, ptr %6, align 4, !tbaa !36
  %82 = load i32, ptr %12, align 4, !tbaa !36
  %83 = mul nsw i32 %81, %82
  %84 = load i32, ptr %14, align 4, !tbaa !36
  %85 = add nsw i32 %83, %84
  %86 = sext i32 %85 to i64
  %87 = getelementptr inbounds double, ptr %80, i64 %86
  %88 = load double, ptr %87, align 8, !tbaa !39
  %89 = load ptr, ptr %7, align 8, !tbaa !37
  %90 = load i32, ptr %6, align 4, !tbaa !36
  %91 = load ptr, ptr %11, align 8, !tbaa !43
  %92 = load i32, ptr %13, align 4, !tbaa !36
  %93 = sext i32 %92 to i64
  %94 = getelementptr inbounds i32, ptr %91, i64 %93
  %95 = load i32, ptr %94, align 4, !tbaa !36
  %96 = mul nsw i32 %90, %95
  %97 = sext i32 %96 to i64
  %98 = getelementptr inbounds double, ptr %89, i64 %97
  %99 = load double, ptr %98, align 8, !tbaa !39
  %100 = fsub double %88, %99
  %101 = load double, ptr %9, align 8, !tbaa !39
  %102 = call double @llvm.fmuladd.f64(double %79, double %100, double %101)
  store double %102, ptr %9, align 8, !tbaa !39
  br label %103

103:                                              ; preds = %58
  %104 = load i32, ptr %14, align 4, !tbaa !36
  %105 = add nsw i32 %104, 1
  store i32 %105, ptr %14, align 4, !tbaa !36
  br label %54, !llvm.loop !46

106:                                              ; preds = %54
  %107 = load double, ptr %9, align 8, !tbaa !39
  %108 = call double @sqrt(double noundef %107) #12, !tbaa !36
  %109 = load double, ptr %8, align 8, !tbaa !39
  %110 = fadd double %109, %108
  store double %110, ptr %8, align 8, !tbaa !39
  br label %111

111:                                              ; preds = %106
  %112 = load i32, ptr %13, align 4, !tbaa !36
  %113 = add nsw i32 %112, 1
  store i32 %113, ptr %13, align 4, !tbaa !36
  br label %44, !llvm.loop !48

114:                                              ; preds = %44
  br label %115

115:                                              ; preds = %114
  %116 = load i32, ptr %12, align 4, !tbaa !36
  %117 = add nsw i32 %116, 1
  store i32 %117, ptr %12, align 4, !tbaa !36
  br label %32, !llvm.loop !49

118:                                              ; preds = %32
  %119 = load double, ptr %8, align 8, !tbaa !39
  %120 = load ptr, ptr %10, align 8, !tbaa !43
  %121 = load ptr, ptr %5, align 8, !tbaa !34
  %122 = getelementptr inbounds nuw %struct.SparseMatrix_struct, ptr %121, i32 0, i32 0
  %123 = load i32, ptr %122, align 8, !tbaa !45
  %124 = sext i32 %123 to i64
  %125 = getelementptr inbounds i32, ptr %120, i64 %124
  %126 = load i32, ptr %125, align 4, !tbaa !36
  %127 = sitofp i32 %126 to double
  %128 = fdiv double %119, %127
  store double %128, ptr %4, align 8
  store i32 1, ptr %15, align 4
  br label %129

129:                                              ; preds = %118, %30
  call void @llvm.lifetime.end.p0(i64 4, ptr %14) #12
  call void @llvm.lifetime.end.p0(i64 4, ptr %13) #12
  call void @llvm.lifetime.end.p0(i64 4, ptr %12) #12
  call void @llvm.lifetime.end.p0(i64 8, ptr %11) #12
  call void @llvm.lifetime.end.p0(i64 8, ptr %10) #12
  call void @llvm.lifetime.end.p0(i64 8, ptr %9) #12
  call void @llvm.lifetime.end.p0(i64 8, ptr %8) #12
  %130 = load double, ptr %4, align 8
  ret double %130
}