; Function Attrs: nofree nounwind memory(readwrite, inaccessiblemem: write) uwtable
define double @average_edge_length(ptr noundef readonly captures(none) %0, i32 noundef %1, ptr noundef readonly captures(none) %2) local_unnamed_addr #6 {
  %4 = getelementptr inbounds nuw i8, ptr %0, i64 24
  %5 = load ptr, ptr %4, align 8, !tbaa !30
  %6 = getelementptr inbounds nuw i8, ptr %0, i64 32
  %7 = load ptr, ptr %6, align 8, !tbaa !34
  %8 = load i32, ptr %0, align 8, !tbaa !35
  %9 = sext i32 %8 to i64
  %10 = getelementptr inbounds i32, ptr %5, i64 %9
  %11 = load i32, ptr %10, align 4, !tbaa !36
  %12 = icmp eq i32 %11, 0
  br i1 %12, label %45, label %.preheader45

.preheader45:                                     ; preds = %3
  %13 = icmp sgt i32 %8, 0
  %14 = icmp sgt i32 %1, 0
  %or.cond = and i1 %13, %14
  br i1 %or.cond, label %.lr.ph.split.us.preheader, label %._crit_edge

.lr.ph.split.us.preheader:                        ; preds = %.preheader45
  %15 = zext nneg i32 %1 to i64
  %.pre = load i32, ptr %5, align 4, !tbaa !36
  br label %.lr.ph.split.us

.lr.ph.split.us:                                  ; preds = %.lr.ph.split.us.preheader, %.loopexit.us
  %16 = phi i32 [ %8, %.lr.ph.split.us.preheader ], [ %21, %.loopexit.us ]
  %17 = phi i32 [ %.pre, %.lr.ph.split.us.preheader ], [ %22, %.loopexit.us ]
  %indvars.iv68 = phi i64 [ 0, %.lr.ph.split.us.preheader ], [ %indvars.iv.next69, %.loopexit.us ]
  %.04154.us = phi double [ 0.000000e+00, %.lr.ph.split.us.preheader ], [ %.1.lcssa.us, %.loopexit.us ]
  %indvars.iv.next69 = add nuw nsw i64 %indvars.iv68, 1
  %18 = getelementptr inbounds nuw i32, ptr %5, i64 %indvars.iv.next69
  %19 = load i32, ptr %18, align 4, !tbaa !36
  %20 = icmp slt i32 %17, %19
  br i1 %20, label %.preheader.lr.ph.us, label %.loopexit.us

.loopexit.us.loopexit:                            ; preds = %._crit_edge.us.us
  %.pre71 = load i32, ptr %0, align 8, !tbaa !35
  br label %.loopexit.us

.loopexit.us:                                     ; preds = %.loopexit.us.loopexit, %.lr.ph.split.us
  %21 = phi i32 [ %16, %.lr.ph.split.us ], [ %.pre71, %.loopexit.us.loopexit ]
  %22 = phi i32 [ %19, %.lr.ph.split.us ], [ %39, %.loopexit.us.loopexit ]
  %.1.lcssa.us = phi double [ %.04154.us, %.lr.ph.split.us ], [ %38, %.loopexit.us.loopexit ]
  %23 = sext i32 %21 to i64
  %24 = icmp slt i64 %indvars.iv.next69, %23
  br i1 %24, label %.lr.ph.split.us, label %._crit_edge.loopexit, !llvm.loop !37

.preheader.lr.ph.us:                              ; preds = %.lr.ph.split.us
  %25 = mul nuw nsw i64 %indvars.iv68, %15
  %26 = sext i32 %17 to i64
  %invariant.gep = getelementptr inbounds nuw double, ptr %2, i64 %25
  br label %.preheader.us.us

.preheader.us.us:                                 ; preds = %._crit_edge.us.us, %.preheader.lr.ph.us
  %indvars.iv65 = phi i64 [ %indvars.iv.next66, %._crit_edge.us.us ], [ %26, %.preheader.lr.ph.us ]
  %.149.us.us = phi double [ %38, %._crit_edge.us.us ], [ %.04154.us, %.preheader.lr.ph.us ]
  %27 = getelementptr inbounds i32, ptr %7, i64 %indvars.iv65
  %28 = load i32, ptr %27, align 4, !tbaa !36
  %29 = mul nsw i32 %28, %1
  %30 = sext i32 %29 to i64
  %31 = getelementptr inbounds double, ptr %2, i64 %30
  %32 = load double, ptr %31, align 8, !tbaa !39
  br label %33

33:                                               ; preds = %33, %.preheader.us.us
  %indvars.iv = phi i64 [ %indvars.iv.next, %33 ], [ 0, %.preheader.us.us ]
  %.04247.us.us = phi double [ %36, %33 ], [ 0.000000e+00, %.preheader.us.us ]
  %gep = getelementptr inbounds nuw double, ptr %invariant.gep, i64 %indvars.iv
  %34 = load double, ptr %gep, align 8, !tbaa !39
  %35 = fsub double %34, %32
  %36 = tail call double @llvm.fmuladd.f64(double %35, double %35, double %.04247.us.us)
  %indvars.iv.next = add nuw nsw i64 %indvars.iv, 1
  %exitcond.not = icmp eq i64 %indvars.iv.next, %15
  br i1 %exitcond.not, label %._crit_edge.us.us, label %33, !llvm.loop !40

._crit_edge.us.us:                                ; preds = %33
  %37 = tail call double @sqrt(double noundef %36) #25, !tbaa !36
  %38 = fadd double %.149.us.us, %37
  %indvars.iv.next66 = add nsw i64 %indvars.iv65, 1
  %39 = load i32, ptr %18, align 4, !tbaa !36
  %40 = sext i32 %39 to i64
  %41 = icmp slt i64 %indvars.iv.next66, %40
  br i1 %41, label %.preheader.us.us, label %.loopexit.us.loopexit, !llvm.loop !41

._crit_edge.loopexit:                             ; preds = %.loopexit.us
  %.phi.trans.insert = getelementptr inbounds i32, ptr %5, i64 %23
  %.pre72 = load i32, ptr %.phi.trans.insert, align 4, !tbaa !36
  br label %._crit_edge

._crit_edge:                                      ; preds = %._crit_edge.loopexit, %.preheader45
  %42 = phi i32 [ %.pre72, %._crit_edge.loopexit ], [ %11, %.preheader45 ]
  %.041.lcssa = phi double [ %.1.lcssa.us, %._crit_edge.loopexit ], [ 0.000000e+00, %.preheader45 ]
  %43 = sitofp i32 %42 to double
  %44 = fdiv double %.041.lcssa, %43
  br label %45

45:                                               ; preds = %3, %._crit_edge
  %.040 = phi double [ %44, %._crit_edge ], [ 1.000000e+00, %3 ]
  ret double %.040
}